target datalayout = "e-m:e-p270:32:32-p271:32:32-p272:64:64-i64:64-i128:128-f80:128-n8:16:32:64-S128"
target triple = "x86_64-pc-linux-gnu"

%struct.expert_field = type { i32, i32 }

@hf_nfapi_number_of_pucch_resource = internal global i32 0, align 4
@hf_nfapi_pucch_index_p1 = internal global i32 0, align 4
@ei_invalid_range = internal global %struct.expert_field zeroinitializer, align 4
@.str.2105 = private unnamed_addr constant [47 x i8] c"Invalid number of pucch resources value [1..2]\00", align 1
@.str.2108 = private unnamed_addr constant [39 x i8] c"Invalid pucch Index p1 value [0..2047]\00", align 1

; Function Attrs: nounwind uwtable
define internal void @dissect_ul_config_sr_info_rel10_value(ptr noundef %0, ptr noundef %1) #0 {
  %3 = alloca ptr, align 8
  %4 = alloca ptr, align 8
  %5 = alloca ptr, align 8
  %6 = alloca i32, align 4
  store ptr %0, ptr %3, align 8
  store ptr %1, ptr %4, align 8
  %7 = load ptr, ptr %3, align 8
  %8 = load i32, ptr @hf_nfapi_number_of_pucch_resource, align 4
  %9 = call ptr @ptvcursor_add_ret_uint(ptr noundef %7, i32 noundef %8, i32 noundef 1, i32 noundef 0, ptr noundef %6)
  store ptr %9, ptr %5, align 8
  %10 = load i32, ptr %6, align 4
  %11 = icmp uge i32 %10, 1
  br i1 %11, label %12, label %15

12:                                               ; preds = %2
  %13 = load i32, ptr %6, align 4
  %14 = icmp ule i32 %13, 2
  br i1 %14, label %19, label %15

15:                                               ; preds = %12, %2
  %16 = load ptr, ptr %4, align 8
  %17 = load ptr, ptr %5, align 8
  %18 = call ptr (ptr, ptr, ptr, ptr, ...) @expert_add_info_format(ptr noundef %16, ptr noundef %17, ptr noundef @ei_invalid_range, ptr noundef @.str.2105)
  br label %19

19:                                               ; preds = %15, %12
  %20 = load ptr, ptr %3, align 8
  %21 = load i32, ptr @hf_nfapi_pucch_index_p1, align 4
  %22 = call ptr @ptvcursor_add_ret_uint(ptr noundef %20, i32 noundef %21, i32 noundef 2, i32 noundef 0, ptr noundef %6)
  store ptr %22, ptr %5, align 8
  %23 = load i32, ptr %6, align 4
  %24 = icmp ugt i32 %23, 2047
  br i1 %24, label %25, label %29

25:                                               ; preds = %19
  %26 = load ptr, ptr %4, align 8
  %27 = load ptr, ptr %5, align 8
  %28 = call ptr (ptr, ptr, ptr, ptr, ...) @expert_add_info_format(ptr noundef %26, ptr noundef %27, ptr noundef @ei_invalid_range, ptr noundef @.str.2108)
  br label %29

29:                                               ; preds = %25, %19
  ret void
}