; Function Attrs: nounwind uwtable
define internal void @dissect_ul_config_sr_info_rel10_value(ptr noundef %0, ptr noundef %1) #0 {
  %3 = alloca i32, align 4
  %4 = load i32, ptr @hf_nfapi_number_of_pucch_resource, align 4
  %5 = call ptr @ptvcursor_add_ret_uint(ptr noundef %0, i32 noundef %4, i32 noundef 1, i32 noundef 0, ptr noundef nonnull %3) #7
  %6 = load i32, ptr %3, align 4
  %7 = add i32 %6, -1
  %or.cond = icmp ult i32 %7, 2
  br i1 %or.cond, label %10, label %8

8:                                                ; preds = %2
  %9 = call ptr (ptr, ptr, ptr, ptr, ...) @expert_add_info_format(ptr noundef %1, ptr noundef %5, ptr noundef nonnull @ei_invalid_range, ptr noundef nonnull @.str.2105) #7
  br label %10

10:                                               ; preds = %2, %8
  %11 = load i32, ptr @hf_nfapi_pucch_index_p1, align 4
  %12 = call ptr @ptvcursor_add_ret_uint(ptr noundef %0, i32 noundef %11, i32 noundef 2, i32 noundef 0, ptr noundef nonnull %3) #7
  %13 = load i32, ptr %3, align 4
  %14 = icmp ugt i32 %13, 2047
  br i1 %14, label %15, label %17

15:                                               ; preds = %10
  %16 = call ptr (ptr, ptr, ptr, ptr, ...) @expert_add_info_format(ptr noundef %1, ptr noundef %12, ptr noundef nonnull @ei_invalid_range, ptr noundef nonnull @.str.2108) #7
  br label %17

17:                                               ; preds = %15, %10
  ret void
}